
build/auipc:     file format elf64-littleriscv


Disassembly of section .text:

0000000052010000 <_start>:
    52010000:	00000297          	auipc	t0,0x0
    52010004:	24c28293          	addi	t0,t0,588 # 5201024c <__DATA_BEGIN__>
    52010008:	00000317          	auipc	t1,0x0
    5201000c:	24830313          	addi	t1,t1,584 # 52010250 <__BSS_END__>
    52010010:	0062d763          	bge	t0,t1,5201001e <setup_stack>

0000000052010014 <clear_bss>:
    52010014:	0002a023          	sw	zero,0(t0)
    52010018:	0291                	addi	t0,t0,4
    5201001a:	fe62cde3          	blt	t0,t1,52010014 <clear_bss>

000000005201001e <setup_stack>:
    5201001e:	50500137          	lui	sp,0x50500

0000000052010022 <enter_main>:
    52010022:	014000ef          	jal	52010036 <main>

0000000052010026 <finish_task>:
    52010026:	05d00893          	li	a7,93
    5201002a:	00000073          	ecall

000000005201002e <loop>:
    5201002e:	10500073          	wfi
    52010032:	bff5                	j	5201002e <loop>
    52010034:	0001                	nop

0000000052010036 <main>:
    52010036:	1141                	addi	sp,sp,-16 # 504ffff0 <_start-0x1b10010>
    52010038:	e406                	sd	ra,8(sp)
    5201003a:	4501                	li	a0,0
    5201003c:	00000517          	auipc	a0,0x0
    52010040:	0e2000ef          	jal	52010122 <print_pc>
    52010044:	60a2                	ld	ra,8(sp)
    52010046:	4501                	li	a0,0
    52010048:	0141                	addi	sp,sp,16
    5201004a:	8082                	ret

000000005201004c <simple_itoa.part.0>:
    5201004c:	0c055363          	bgez	a0,52010112 <simple_itoa.part.0+0xc6>
    52010050:	e2e9                	bnez	a3,52010112 <simple_itoa.part.0+0xc6>
    52010052:	40a00533          	neg	a0,a0
    52010056:	4305                	li	t1,1
    52010058:	06100893          	li	a7,97
    5201005c:	c219                	beqz	a2,52010062 <simple_itoa.part.0+0x16>
    5201005e:	04100893          	li	a7,65
    52010062:	1582                	slli	a1,a1,0x20
    52010064:	9181                	srli	a1,a1,0x20
    52010066:	38d9                	addiw	a7,a7,-10
    52010068:	863a                	mv	a2,a4
    5201006a:	4825                	li	a6,9
    5201006c:	a811                	j	52010080 <simple_itoa.part.0+0x34>
    5201006e:	02b54533          	div	a0,a0,a1
    52010072:	0306869b          	addiw	a3,a3,48
    52010076:	00d60023          	sb	a3,0(a2)
    5201007a:	0605                	addi	a2,a2,1
    5201007c:	00a05f63          	blez	a0,5201009a <simple_itoa.part.0+0x4e>
    52010080:	02b566b3          	rem	a3,a0,a1
    52010084:	fed855e3          	bge	a6,a3,5201006e <simple_itoa.part.0+0x22>
    52010088:	02b54533          	div	a0,a0,a1
    5201008c:	00d886bb          	addw	a3,a7,a3
    52010090:	00d60023          	sb	a3,0(a2)
    52010094:	0605                	addi	a2,a2,1
    52010096:	fea045e3          	bgtz	a0,52010080 <simple_itoa.part.0+0x34>
    5201009a:	40e606bb          	subw	a3,a2,a4
    5201009e:	02f6f463          	bgeu	a3,a5,520100c6 <simple_itoa.part.0+0x7a>
    520100a2:	fff7859b          	addiw	a1,a5,-1
    520100a6:	9d95                	subw	a1,a1,a3
    520100a8:	1582                	slli	a1,a1,0x20
    520100aa:	9181                	srli	a1,a1,0x20
    520100ac:	00158693          	addi	a3,a1,1
    520100b0:	87b2                	mv	a5,a2
    520100b2:	03000513          	li	a0,48
    520100b6:	96b2                	add	a3,a3,a2
    520100b8:	0785                	addi	a5,a5,1
    520100ba:	fea78fa3          	sb	a0,-1(a5)
    520100be:	fed79de3          	bne	a5,a3,520100b8 <simple_itoa.part.0+0x6c>
    520100c2:	0605                	addi	a2,a2,1
    520100c4:	962e                	add	a2,a2,a1
    520100c6:	00030763          	beqz	t1,520100d4 <simple_itoa.part.0+0x88>
    520100ca:	02d00793          	li	a5,45
    520100ce:	00f60023          	sb	a5,0(a2)
    520100d2:	0605                	addi	a2,a2,1
    520100d4:	40e6053b          	subw	a0,a2,a4
    520100d8:	00060023          	sb	zero,0(a2)
    520100dc:	0015589b          	srliw	a7,a0,0x1
    520100e0:	02088863          	beqz	a7,52010110 <simple_itoa.part.0+0xc4>
    520100e4:	fff7081b          	addiw	a6,a4,-1
    520100e8:	98ba                	add	a7,a7,a4
    520100ea:	00a8083b          	addw	a6,a6,a0
    520100ee:	86ba                	mv	a3,a4
    520100f0:	40d807bb          	subw	a5,a6,a3
    520100f4:	1782                	slli	a5,a5,0x20
    520100f6:	9381                	srli	a5,a5,0x20
    520100f8:	97ba                	add	a5,a5,a4
    520100fa:	0007c583          	lbu	a1,0(a5)
    520100fe:	0006c603          	lbu	a2,0(a3)
    52010102:	0685                	addi	a3,a3,1
    52010104:	feb68fa3          	sb	a1,-1(a3)
    52010108:	00c78023          	sb	a2,0(a5)
    5201010c:	ff1692e3          	bne	a3,a7,520100f0 <simple_itoa.part.0+0xa4>
    52010110:	8082                	ret
    52010112:	4301                	li	t1,0
    52010114:	b791                	j	52010058 <simple_itoa.part.0+0xc>

0000000052010116 <simple_itoa>:
    52010116:	4841                	li	a6,16
    52010118:	00b86363          	bltu	a6,a1,5201011e <simple_itoa+0x8>
    5201011c:	bf05                	j	5201004c <simple_itoa.part.0>
    5201011e:	4501                	li	a0,0
    52010120:	8082                	ret

0000000052010122 <print_pc>:
    52010122:	715d                	addi	sp,sp,-80
    52010124:	0038                	addi	a4,sp,8
    52010126:	4781                	li	a5,0
    52010128:	4685                	li	a3,1
    5201012a:	4601                	li	a2,0
    5201012c:	45c1                	li	a1,16
    5201012e:	e486                	sd	ra,72(sp)
    52010130:	e0a2                	sd	s0,64(sp)
    52010132:	f1bff0ef          	jal	5201004c <simple_itoa.part.0>
    52010136:	52000437          	lui	s0,0x52000
    5201013a:	f0043783          	ld	a5,-256(s0) # 51ffff00 <_start-0x10100>
    5201013e:	4701                	li	a4,0
    52010140:	4681                	li	a3,0
    52010142:	4601                	li	a2,0
    52010144:	4581                	li	a1,0
    52010146:	00000517          	auipc	a0,0x0
    5201014a:	03a50513          	addi	a0,a0,58 # 52010180 <print_pc+0x5e>
    5201014e:	9782                	jalr	a5
    52010150:	f0043783          	ld	a5,-256(s0)
    52010154:	0028                	addi	a0,sp,8
    52010156:	4701                	li	a4,0
    52010158:	4681                	li	a3,0
    5201015a:	4601                	li	a2,0
    5201015c:	4581                	li	a1,0
    5201015e:	9782                	jalr	a5
    52010160:	f0043783          	ld	a5,-256(s0)
    52010164:	4701                	li	a4,0
    52010166:	4681                	li	a3,0
    52010168:	4601                	li	a2,0
    5201016a:	4581                	li	a1,0
    5201016c:	00000517          	auipc	a0,0x0
    52010170:	03450513          	addi	a0,a0,52 # 520101a0 <print_pc+0x7e>
    52010174:	9782                	jalr	a5
    52010176:	60a6                	ld	ra,72(sp)
    52010178:	6406                	ld	s0,64(sp)
    5201017a:	6161                	addi	sp,sp,80
    5201017c:	8082                	ret
